; Function Attrs: mustprogress nofree norecurse nosync nounwind willreturn memory(argmem: read) uwtable
define noundef zeroext i1 @_ZN4base26EqualsCaseInsensitiveASCIIENS_16BasicStringPieceINSt7__cxx1112basic_stringIcSt11char_traitsIcESaIcEEEEES7_(ptr readonly captures(none) %0, i64 %1, ptr readonly captures(none) %2, i64 %3) local_unnamed_addr #5 {
  %.fr.i = freeze i64 %3
  %.not = icmp eq i64 %1, %.fr.i
  br i1 %.not, label %5, label %_ZN4base28CompareCaseInsensitiveASCIITINSt7__cxx1112basic_stringIcSt11char_traitsIcESaIcEEEEEiNS_16BasicStringPieceIT_EES9_.exit

5:                                                ; preds = %4
  %or.cond26.not.i = icmp eq i64 %1, 0
  br i1 %or.cond26.not.i, label %_ZN4base28CompareCaseInsensitiveASCIITINSt7__cxx1112basic_stringIcSt11char_traitsIcESaIcEEEEEiNS_16BasicStringPieceIT_EES9_.exit, label %.lr.ph.i

.lr.ph.i:                                         ; preds = %5, %.lr.ph.i
  %.01227.i = phi i64 [ %16, %.lr.ph.i ], [ 0, %5 ]
  %6 = getelementptr inbounds nuw i8, ptr %0, i64 %.01227.i
  %7 = load i8, ptr %6, align 1, !tbaa !20
  %8 = add i8 %7, -65
  %or.cond.i.i = icmp ult i8 %8, 26
  %9 = add nuw nsw i8 %7, 32
  %10 = select i1 %or.cond.i.i, i8 %9, i8 %7
  %11 = getelementptr inbounds nuw i8, ptr %2, i64 %.01227.i
  %12 = load i8, ptr %11, align 1, !tbaa !20
  %13 = add i8 %12, -65
  %or.cond.i16.i = icmp ult i8 %13, 26
  %14 = add nuw nsw i8 %12, 32
  %15 = select i1 %or.cond.i16.i, i8 %14, i8 %12
  %or.cond.not = icmp eq i8 %10, %15
  %16 = add nuw i64 %.01227.i, 1
  %exitcond.not.i = icmp ne i64 %16, %1
  %or.cond.not7 = select i1 %or.cond.not, i1 %exitcond.not.i, i1 false
  br i1 %or.cond.not7, label %.lr.ph.i, label %_ZN4base28CompareCaseInsensitiveASCIITINSt7__cxx1112basic_stringIcSt11char_traitsIcESaIcEEEEEiNS_16BasicStringPieceIT_EES9_.exit, !llvm.loop !43

_ZN4base28CompareCaseInsensitiveASCIITINSt7__cxx1112basic_stringIcSt11char_traitsIcESaIcEEEEEiNS_16BasicStringPieceIT_EES9_.exit: ; preds = %.lr.ph.i, %5, %4
  %.0 = phi i1 [ false, %4 ], [ true, %5 ], [ %or.cond.not, %.lr.ph.i ]
  ret i1 %.0
}